target datalayout = "e-m:e-p270:32:32-p271:32:32-p272:64:64-i64:64-i128:128-f80:128-n8:16:32:64-S128"
target triple = "x86_64-unknown-linux-gnu"

%"class.node::quic::QuicError" = type { %"class.node::MemoryRetainer", %"class.std::__cxx11::basic_string", %struct.ngtcp2_connection_close_error, ptr }
%"class.node::MemoryRetainer" = type { ptr }
%"class.std::__cxx11::basic_string" = type { %"struct.std::__cxx11::basic_string<char>::_Alloc_hider", i64, %union.anon }
%"struct.std::__cxx11::basic_string<char>::_Alloc_hider" = type { ptr }
%union.anon = type { i64, [8 x i8] }
%struct.ngtcp2_connection_close_error = type { i32, i64, i64, ptr, i64 }
%"class.node::quic::TransportParams" = type { i32, %struct.ngtcp2_transport_params, ptr, %"class.node::quic::QuicError" }
%struct.ngtcp2_transport_params = type { %struct.ngtcp2_preferred_addr, %struct.ngtcp2_cid, %struct.ngtcp2_cid, %struct.ngtcp2_cid, i64, i64, i64, i64, i64, i64, i64, i64, i64, i64, i64, i64, i8, i8, i8, i8, [16 x i8], i8, %struct.ngtcp2_version_info, i8 }
%struct.ngtcp2_preferred_addr = type { %struct.ngtcp2_cid, i16, i16, [4 x i8], [16 x i8], i8, i8, [16 x i8] }
%struct.ngtcp2_cid = type { i64, [20 x i8] }
%struct.ngtcp2_version_info = type { i32, ptr, i64 }
%"class.std::basic_string_view" = type { i64, ptr }
%struct.ngtcp2_vec = type { ptr, i64 }

@_ZN4node4quic9QuicError18TRANSPORT_NO_ERRORE = external global %"class.node::quic::QuicError", align 8
@.str.6 = private unnamed_addr constant [1 x i8] zeroinitializer, align 1
@_ZTVN4node4quic9QuicErrorE = external unnamed_addr constant { [10 x ptr] }, align 8

; Function Attrs: mustprogress nounwind uwtable
define linkonce_odr dso_local void @_ZN4node14MemoryRetainerC2ERKS0_(ptr noundef nonnull align 8 dereferenceable(8) %this, ptr noundef nonnull align 8 dereferenceable(8) %0) unnamed_addr #4 comdat align 2 {
entry:
  %this.addr = alloca ptr, align 8
  %.addr = alloca ptr, align 8
  store ptr %this, ptr %this.addr, align 8
  store ptr %0, ptr %.addr, align 8
  %this1 = load ptr, ptr %this.addr, align 8
  store ptr getelementptr inbounds ({ [10 x ptr] }, ptr @_ZTVN4node14MemoryRetainerE, i32 0, i32 0, i32 2), ptr %this1, align 8
  ret void
}

; Function Attrs: mustprogress nounwind uwtable
define linkonce_odr dso_local void @_ZN4node14MemoryRetainerD2Ev(ptr noundef nonnull align 8 dereferenceable(8) %this) unnamed_addr #4 comdat align 2 {
entry:
  %this.addr = alloca ptr, align 8
  store ptr %this, ptr %this.addr, align 8
  ret void
}

; Function Attrs: mustprogress nounwind uwtable
define linkonce_odr dso_local noundef nonnull align 8 dereferenceable(8) ptr @_ZN4node14MemoryRetaineraSERKS0_(ptr noundef nonnull align 8 dereferenceable(8) %this, ptr noundef nonnull align 8 dereferenceable(8) %0) #4 comdat align 2 {
entry:
  %this.addr = alloca ptr, align 8
  %.addr = alloca ptr, align 8
  store ptr %this, ptr %this.addr, align 8
  store ptr %0, ptr %.addr, align 8
  %this1 = load ptr, ptr %this.addr, align 8
  ret ptr %this1
}

; Function Attrs: mustprogress nounwind uwtable
define linkonce_odr dso_local noundef i64 @_ZNSt11char_traitsIcE6lengthEPKc(ptr noundef %__s) #4 comdat align 2 {
entry:
  %__s.addr = alloca ptr, align 8
  store ptr %__s, ptr %__s.addr, align 8
  %0 = load ptr, ptr %__s.addr, align 8
  %call = call i64 @strlen(ptr noundef %0) #3
  ret i64 %call
}

; Function Attrs: mustprogress nounwind uwtable
define linkonce_odr dso_local void @_ZN4node4quic9QuicErrorC2ERKS1_(ptr noundef nonnull align 8 dereferenceable(88) %this, ptr noundef nonnull align 8 dereferenceable(88) %0) unnamed_addr #4 comdat align 2 {
entry:
  %this.addr = alloca ptr, align 8
  %.addr = alloca ptr, align 8
  store ptr %this, ptr %this.addr, align 8
  store ptr %0, ptr %.addr, align 8
  %this1 = load ptr, ptr %this.addr, align 8
  %1 = load ptr, ptr %.addr, align 8
  call void @_ZN4node14MemoryRetainerC2ERKS0_(ptr noundef nonnull align 8 dereferenceable(8) %this1, ptr noundef nonnull align 8 dereferenceable(8) %1) #3
  store ptr getelementptr inbounds ({ [10 x ptr] }, ptr @_ZTVN4node4quic9QuicErrorE, i32 0, i32 0, i32 2), ptr %this1, align 8
  %reason_ = getelementptr inbounds %"class.node::quic::QuicError", ptr %this1, i32 0, i32 1
  %2 = load ptr, ptr %.addr, align 8
  %reason_2 = getelementptr inbounds %"class.node::quic::QuicError", ptr %2, i32 0, i32 1
  call void @_ZNSt7__cxx1112basic_stringIcSt11char_traitsIcESaIcEEC1ERKS4_(ptr noundef nonnull align 8 dereferenceable(32) %reason_, ptr noundef nonnull align 8 dereferenceable(32) %reason_2)
  %error_ = getelementptr inbounds %"class.node::quic::QuicError", ptr %this1, i32 0, i32 2
  %3 = load ptr, ptr %.addr, align 8
  %error_3 = getelementptr inbounds %"class.node::quic::QuicError", ptr %3, i32 0, i32 2
  call void @llvm.memcpy.p0.p0.i64(ptr align 8 %error_, ptr align 8 %error_3, i64 48, i1 false)
  ret void
}

; Function Attrs: mustprogress nounwind uwtable
define linkonce_odr dso_local void @_ZN4node4quic9QuicErrorD2Ev(ptr noundef nonnull align 8 dereferenceable(88) %this) unnamed_addr #4 comdat align 2 {
entry:
  %this.addr = alloca ptr, align 8
  store ptr %this, ptr %this.addr, align 8
  %this1 = load ptr, ptr %this.addr, align 8
  %reason_ = getelementptr inbounds %"class.node::quic::QuicError", ptr %this1, i32 0, i32 1
  call void @_ZNSt7__cxx1112basic_stringIcSt11char_traitsIcESaIcEED1Ev(ptr noundef nonnull align 8 dereferenceable(32) %reason_) #3
  call void @_ZN4node14MemoryRetainerD2Ev(ptr noundef nonnull align 8 dereferenceable(8) %this1) #3
  ret void
}

; Function Attrs: mustprogress nounwind uwtable
define linkonce_odr dso_local noundef nonnull align 8 dereferenceable(88) ptr @_ZN4node4quic9QuicErroraSEOS1_(ptr noundef nonnull align 8 dereferenceable(88) %this, ptr noundef nonnull align 8 dereferenceable(88) %0) #4 comdat align 2 {
entry:
  %this.addr = alloca ptr, align 8
  %.addr = alloca ptr, align 8
  store ptr %this, ptr %this.addr, align 8
  store ptr %0, ptr %.addr, align 8
  %this1 = load ptr, ptr %this.addr, align 8
  %1 = load ptr, ptr %.addr, align 8
  %call = call noundef nonnull align 8 dereferenceable(8) ptr @_ZN4node14MemoryRetaineraSERKS0_(ptr noundef nonnull align 8 dereferenceable(8) %this1, ptr noundef nonnull align 8 dereferenceable(8) %1) #3
  %reason_ = getelementptr inbounds %"class.node::quic::QuicError", ptr %this1, i32 0, i32 1
  %2 = load ptr, ptr %.addr, align 8
  %reason_2 = getelementptr inbounds %"class.node::quic::QuicError", ptr %2, i32 0, i32 1
  %call3 = call noundef nonnull align 8 dereferenceable(32) ptr @_ZNSt7__cxx1112basic_stringIcSt11char_traitsIcESaIcEEaSEOS4_(ptr noundef nonnull align 8 dereferenceable(32) %reason_, ptr noundef nonnull align 8 dereferenceable(32) %reason_2) #3
  %error_ = getelementptr inbounds %"class.node::quic::QuicError", ptr %this1, i32 0, i32 2
  %3 = load ptr, ptr %.addr, align 8
  %error_4 = getelementptr inbounds %"class.node::quic::QuicError", ptr %3, i32 0, i32 2
  call void @llvm.memcpy.p0.p0.i64(ptr align 8 %error_, ptr align 8 %error_4, i64 48, i1 false)
  ret ptr %this1
}

; Function Attrs: mustprogress nounwind uwtable
define linkonce_odr dso_local void @_ZNSt17basic_string_viewIcSt11char_traitsIcEEC2EPKc(ptr noundef nonnull align 8 dereferenceable(16) %this, ptr noundef nonnull %__str) unnamed_addr #4 comdat align 2 {
entry:
  %this.addr = alloca ptr, align 8
  %__str.addr = alloca ptr, align 8
  store ptr %this, ptr %this.addr, align 8
  store ptr %__str, ptr %__str.addr, align 8
  %this1 = load ptr, ptr %this.addr, align 8
  %_M_len = getelementptr inbounds %"class.std::basic_string_view", ptr %this1, i32 0, i32 0
  %0 = load ptr, ptr %__str.addr, align 8
  %call = call noundef i64 @_ZNSt11char_traitsIcE6lengthEPKc(ptr noundef %0)
  store i64 %call, ptr %_M_len, align 8
  %_M_str = getelementptr inbounds %"class.std::basic_string_view", ptr %this1, i32 0, i32 1
  %1 = load ptr, ptr %__str.addr, align 8
  store ptr %1, ptr %_M_str, align 8
  ret void
}

; Function Attrs: mustprogress nounwind uwtable
define dso_local void @_ZN4node4quic15TransportParamsC2ENS1_4TypeE(ptr noundef nonnull align 8 dereferenceable(432) %this, i32 noundef %type) unnamed_addr #4 align 2 {
entry:
  %this.addr = alloca ptr, align 8
  %type.addr = alloca i32, align 4
  store ptr %this, ptr %this.addr, align 8
  store i32 %type, ptr %type.addr, align 4
  %this1 = load ptr, ptr %this.addr, align 8
  %type_ = getelementptr inbounds %"class.node::quic::TransportParams", ptr %this1, i32 0, i32 0
  %0 = load i32, ptr %type.addr, align 4
  store i32 %0, ptr %type_, align 8
  %params_ = getelementptr inbounds %"class.node::quic::TransportParams", ptr %this1, i32 0, i32 1
  %preferred_address = getelementptr inbounds %struct.ngtcp2_transport_params, ptr %params_, i32 0, i32 0
  call void @llvm.memset.p0.i64(ptr align 8 %preferred_address, i8 0, i64 80, i1 false)
  %original_dcid = getelementptr inbounds %struct.ngtcp2_transport_params, ptr %params_, i32 0, i32 1
  call void @llvm.memset.p0.i64(ptr align 8 %original_dcid, i8 0, i64 32, i1 false)
  %initial_scid = getelementptr inbounds %struct.ngtcp2_transport_params, ptr %params_, i32 0, i32 2
  call void @llvm.memset.p0.i64(ptr align 8 %initial_scid, i8 0, i64 32, i1 false)
  %retry_scid = getelementptr inbounds %struct.ngtcp2_transport_params, ptr %params_, i32 0, i32 3
  call void @llvm.memset.p0.i64(ptr align 8 %retry_scid, i8 0, i64 32, i1 false)
  %initial_max_stream_data_bidi_local = getelementptr inbounds %struct.ngtcp2_transport_params, ptr %params_, i32 0, i32 4
  store i64 0, ptr %initial_max_stream_data_bidi_local, align 8
  %initial_max_stream_data_bidi_remote = getelementptr inbounds %struct.ngtcp2_transport_params, ptr %params_, i32 0, i32 5
  store i64 0, ptr %initial_max_stream_data_bidi_remote, align 8
  %initial_max_stream_data_uni = getelementptr inbounds %struct.ngtcp2_transport_params, ptr %params_, i32 0, i32 6
  store i64 0, ptr %initial_max_stream_data_uni, align 8
  %initial_max_data = getelementptr inbounds %struct.ngtcp2_transport_params, ptr %params_, i32 0, i32 7
  store i64 0, ptr %initial_max_data, align 8
  %initial_max_streams_bidi = getelementptr inbounds %struct.ngtcp2_transport_params, ptr %params_, i32 0, i32 8
  store i64 0, ptr %initial_max_streams_bidi, align 8
  %initial_max_streams_uni = getelementptr inbounds %struct.ngtcp2_transport_params, ptr %params_, i32 0, i32 9
  store i64 0, ptr %initial_max_streams_uni, align 8
  %max_idle_timeout = getelementptr inbounds %struct.ngtcp2_transport_params, ptr %params_, i32 0, i32 10
  store i64 0, ptr %max_idle_timeout, align 8
  %max_udp_payload_size = getelementptr inbounds %struct.ngtcp2_transport_params, ptr %params_, i32 0, i32 11
  store i64 0, ptr %max_udp_payload_size, align 8
  %active_connection_id_limit = getelementptr inbounds %struct.ngtcp2_transport_params, ptr %params_, i32 0, i32 12
  store i64 0, ptr %active_connection_id_limit, align 8
  %ack_delay_exponent = getelementptr inbounds %struct.ngtcp2_transport_params, ptr %params_, i32 0, i32 13
  store i64 0, ptr %ack_delay_exponent, align 8
  %max_ack_delay = getelementptr inbounds %struct.ngtcp2_transport_params, ptr %params_, i32 0, i32 14
  store i64 0, ptr %max_ack_delay, align 8
  %max_datagram_frame_size = getelementptr inbounds %struct.ngtcp2_transport_params, ptr %params_, i32 0, i32 15
  store i64 0, ptr %max_datagram_frame_size, align 8
  %stateless_reset_token_present = getelementptr inbounds %struct.ngtcp2_transport_params, ptr %params_, i32 0, i32 16
  store i8 0, ptr %stateless_reset_token_present, align 8
  %disable_active_migration = getelementptr inbounds %struct.ngtcp2_transport_params, ptr %params_, i32 0, i32 17
  store i8 0, ptr %disable_active_migration, align 1
  %retry_scid_present = getelementptr inbounds %struct.ngtcp2_transport_params, ptr %params_, i32 0, i32 18
  store i8 0, ptr %retry_scid_present, align 2
  %preferred_address_present = getelementptr inbounds %struct.ngtcp2_transport_params, ptr %params_, i32 0, i32 19
  store i8 0, ptr %preferred_address_present, align 1
  %stateless_reset_token = getelementptr inbounds %struct.ngtcp2_transport_params, ptr %params_, i32 0, i32 20
  call void @llvm.memset.p0.i64(ptr align 4 %stateless_reset_token, i8 0, i64 16, i1 false)
  %grease_quic_bit = getelementptr inbounds %struct.ngtcp2_transport_params, ptr %params_, i32 0, i32 21
  store i8 0, ptr %grease_quic_bit, align 4
  %version_info = getelementptr inbounds %struct.ngtcp2_transport_params, ptr %params_, i32 0, i32 22
  call void @llvm.memset.p0.i64(ptr align 8 %version_info, i8 0, i64 24, i1 false)
  %version_info_present = getelementptr inbounds %struct.ngtcp2_transport_params, ptr %params_, i32 0, i32 23
  store i8 0, ptr %version_info_present, align 8
  %ptr_ = getelementptr inbounds %"class.node::quic::TransportParams", ptr %this1, i32 0, i32 2
  %params_2 = getelementptr inbounds %"class.node::quic::TransportParams", ptr %this1, i32 0, i32 1
  store ptr %params_2, ptr %ptr_, align 8
  %error_ = getelementptr inbounds %"class.node::quic::TransportParams", ptr %this1, i32 0, i32 3
  call void @_ZN4node4quic9QuicErrorC2ERKS1_(ptr noundef nonnull align 8 dereferenceable(88) %error_, ptr noundef nonnull align 8 dereferenceable(88) @_ZN4node4quic9QuicError18TRANSPORT_NO_ERRORE)
  ret void
}

; Function Attrs: mustprogress nounwind uwtable
define dso_local void @_ZN4node4quic15TransportParamsC2ENS1_4TypeERK10ngtcp2_vec(ptr noundef nonnull align 8 dereferenceable(432) %this, i32 noundef %type, ptr noundef nonnull align 8 dereferenceable(16) %vec) unnamed_addr #4 align 2 {
entry:
  %this.addr = alloca ptr, align 8
  %type.addr = alloca i32, align 4
  %vec.addr = alloca ptr, align 8
  %ret = alloca i32, align 4
  %ref.tmp = alloca %"class.node::quic::QuicError", align 8
  %agg.tmp = alloca %"class.std::basic_string_view", align 8
  store ptr %this, ptr %this.addr, align 8
  store i32 %type, ptr %type.addr, align 4
  store ptr %vec, ptr %vec.addr, align 8
  %this1 = load ptr, ptr %this.addr, align 8
  %0 = load i32, ptr %type.addr, align 4
  call void @_ZN4node4quic15TransportParamsC2ENS1_4TypeE(ptr noundef nonnull align 8 dereferenceable(432) %this1, i32 noundef %0)
  %params_ = getelementptr inbounds %"class.node::quic::TransportParams", ptr %this1, i32 0, i32 1
  %1 = load i32, ptr %type.addr, align 4
  %2 = load ptr, ptr %vec.addr, align 8
  %base = getelementptr inbounds %struct.ngtcp2_vec, ptr %2, i32 0, i32 0
  %3 = load ptr, ptr %base, align 8
  %4 = load ptr, ptr %vec.addr, align 8
  %len = getelementptr inbounds %struct.ngtcp2_vec, ptr %4, i32 0, i32 1
  %5 = load i64, ptr %len, align 8
  %call = call i32 @ngtcp2_decode_transport_params_versioned(i32 noundef 1, ptr noundef %params_, i32 noundef %1, ptr noundef %3, i64 noundef %5)
  store i32 %call, ptr %ret, align 4
  %6 = load i32, ptr %ret, align 4
  %cmp = icmp ne i32 %6, 0
  br i1 %cmp, label %if.then, label %if.end

if.then:                                          ; preds = %entry
  %ptr_ = getelementptr inbounds %"class.node::quic::TransportParams", ptr %this1, i32 0, i32 2
  store ptr null, ptr %ptr_, align 8
  %7 = load i32, ptr %ret, align 4
  call void @_ZNSt17basic_string_viewIcSt11char_traitsIcEEC2EPKc(ptr noundef nonnull align 8 dereferenceable(16) %agg.tmp, ptr noundef @.str.6) #3
  %8 = getelementptr inbounds { i64, ptr }, ptr %agg.tmp, i32 0, i32 0
  %9 = load i64, ptr %8, align 8
  %10 = getelementptr inbounds { i64, ptr }, ptr %agg.tmp, i32 0, i32 1
  %11 = load ptr, ptr %10, align 8
  call void @_ZN4node4quic9QuicError14ForNgtcp2ErrorEiSt17basic_string_viewIcSt11char_traitsIcEE(ptr sret(%"class.node::quic::QuicError") align 8 %ref.tmp, i32 noundef %7, i64 %9, ptr %11)
  %error_ = getelementptr inbounds %"class.node::quic::TransportParams", ptr %this1, i32 0, i32 3
  %call2 = call noundef nonnull align 8 dereferenceable(88) ptr @_ZN4node4quic9QuicErroraSEOS1_(ptr noundef nonnull align 8 dereferenceable(88) %error_, ptr noundef nonnull align 8 dereferenceable(88) %ref.tmp) #3
  call void @_ZN4node4quic9QuicErrorD2Ev(ptr noundef nonnull align 8 dereferenceable(88) %ref.tmp) #3
  br label %if.end

if.end:                                           ; preds = %if.then, %entry
  ret void
}