; Function Attrs: mustprogress nounwind uwtable
define dso_local void @_ZN4node4quic15TransportParamsC2ENS1_4TypeERK10ngtcp2_vec(ptr noundef nonnull align 8 dereferenceable(432) %this, i32 noundef %type, ptr nocapture noundef nonnull readonly align 8 dereferenceable(16) %vec) unnamed_addr #3 align 2 {
entry:
  %ref.tmp = alloca %"class.node::quic::QuicError", align 8
  store i32 %type, ptr %this, align 8
  %params_.i = getelementptr inbounds i8, ptr %this, i64 8
  %version_info.i = getelementptr inbounds i8, ptr %this, i64 304
  %ptr_.i = getelementptr inbounds i8, ptr %this, i64 336
  tail call void @llvm.memset.p0.i64(ptr noundef nonnull align 8 dereferenceable(293) %params_.i, i8 0, i64 293, i1 false)
  tail call void @llvm.memset.p0.i64(ptr noundef nonnull align 8 dereferenceable(25) %version_info.i, i8 0, i64 25, i1 false)
  store ptr %params_.i, ptr %ptr_.i, align 8
  %error_.i = getelementptr inbounds i8, ptr %this, i64 344
  store ptr getelementptr inbounds ({ [10 x ptr] }, ptr @_ZTVN4node4quic9QuicErrorE, i64 0, i32 0, i64 2), ptr %error_.i, align 8
  %reason_.i.i = getelementptr inbounds i8, ptr %this, i64 352
  tail call void @_ZNSt7__cxx1112basic_stringIcSt11char_traitsIcESaIcEEC1ERKS4_(ptr noundef nonnull align 8 dereferenceable(32) %reason_.i.i, ptr noundef nonnull align 8 dereferenceable(32) getelementptr inbounds (%"class.node::quic::QuicError", ptr @_ZN4node4quic9QuicError18TRANSPORT_NO_ERRORE, i64 0, i32 1, i32 0, i32 0)) #19
  %error_.i.i = getelementptr inbounds i8, ptr %this, i64 384
  tail call void @llvm.memcpy.p0.p0.i64(ptr noundef nonnull align 8 dereferenceable(48) %error_.i.i, ptr noundef nonnull align 8 dereferenceable(48) getelementptr inbounds (%"class.node::quic::QuicError", ptr @_ZN4node4quic9QuicError18TRANSPORT_NO_ERRORE, i64 0, i32 2, i32 0), i64 48, i1 false)
  %0 = load ptr, ptr %vec, align 8
  %len = getelementptr inbounds i8, ptr %vec, i64 8
  %1 = load i64, ptr %len, align 8
  %call = tail call i32 @ngtcp2_decode_transport_params_versioned(i32 noundef 1, ptr noundef nonnull %params_.i, i32 noundef %type, ptr noundef %0, i64 noundef %1) #19
  %cmp.not = icmp eq i32 %call, 0
  br i1 %cmp.not, label %if.end, label %if.then

if.then:                                          ; preds = %entry
  store ptr null, ptr %ptr_.i, align 8
  call void @_ZN4node4quic9QuicError14ForNgtcp2ErrorEiSt17basic_string_viewIcSt11char_traitsIcEE(ptr nonnull sret(%"class.node::quic::QuicError") align 8 %ref.tmp, i32 noundef %call, i64 0, ptr nonnull @.str.6) #19
  %reason_2.i = getelementptr inbounds i8, ptr %ref.tmp, i64 8
  %call3.i = call noundef nonnull align 8 dereferenceable(32) ptr @_ZNSt7__cxx1112basic_stringIcSt11char_traitsIcESaIcEEaSEOS4_(ptr noundef nonnull align 8 dereferenceable(32) %reason_.i.i, ptr noundef nonnull align 8 dereferenceable(32) %reason_2.i) #19
  %error_4.i = getelementptr inbounds i8, ptr %ref.tmp, i64 40
  call void @llvm.memcpy.p0.p0.i64(ptr noundef nonnull align 8 dereferenceable(48) %error_.i.i, ptr noundef nonnull align 8 dereferenceable(48) %error_4.i, i64 48, i1 false)
  call void @_ZNSt7__cxx1112basic_stringIcSt11char_traitsIcESaIcEED1Ev(ptr noundef nonnull align 8 dereferenceable(32) %reason_2.i) #19
  br label %if.end

if.end:                                           ; preds = %if.then, %entry
  ret void
}